target datalayout = "e-m:e-p270:32:32-p271:32:32-p272:64:64-i64:64-i128:128-f80:128-n8:16:32:64-S128"
target triple = "x86_64-pc-linux-gnu"

%"class.marisa::grimoire::io::Mapper" = type <{ ptr, ptr, i64, i64, i32, [4 x i8] }>
%"class.marisa::Exception" = type { %"class.std::exception", ptr, i32, i32, ptr }
%"class.std::exception" = type { ptr }
%struct.stat = type { i64, i64, i64, i32, i32, i32, i32, i64, i64, i64, i64, %struct.timespec, %struct.timespec, %struct.timespec, [3 x i64] }
%struct.timespec = type { i64, i64 }

@.str = private unnamed_addr constant [142 x i8] c"generated/home/dtcxzyw/WorkSpace/Projects/compilers/llvm-opt-benchmark/bench/opencc/OpenCC/deps/marisa-0.2.6/lib/marisa/grimoire/io/mapper.cc\00", align 1
@_ZTIN6marisa9ExceptionE = linkonce_odr constant { ptr, ptr, ptr } { ptr getelementptr inbounds (ptr, ptr @_ZTVN10__cxxabiv120__si_class_type_infoE, i64 2), ptr @_ZTSN6marisa9ExceptionE, ptr @_ZTISt9exception }, comdat, align 8
@.str.7 = private unnamed_addr constant [191 x i8] c"generated/home/dtcxzyw/WorkSpace/Projects/compilers/llvm-opt-benchmark/bench/opencc/OpenCC/deps/marisa-0.2.6/lib/marisa/grimoire/io/mapper.cc:141: MARISA_IO_ERROR: ::stat(filename, &st) != 0\00", align 1
@.str.8 = private unnamed_addr constant [203 x i8] c"generated/home/dtcxzyw/WorkSpace/Projects/compilers/llvm-opt-benchmark/bench/opencc/OpenCC/deps/marisa-0.2.6/lib/marisa/grimoire/io/mapper.cc:142: MARISA_SIZE_ERROR: (UInt64)st.st_size > MARISA_SIZE_MAX\00", align 1
@.str.9 = private unnamed_addr constant [174 x i8] c"generated/home/dtcxzyw/WorkSpace/Projects/compilers/llvm-opt-benchmark/bench/opencc/OpenCC/deps/marisa-0.2.6/lib/marisa/grimoire/io/mapper.cc:146: MARISA_IO_ERROR: fd_ == -1\00", align 1
@.str.10 = private unnamed_addr constant [186 x i8] c"generated/home/dtcxzyw/WorkSpace/Projects/compilers/llvm-opt-benchmark/bench/opencc/OpenCC/deps/marisa-0.2.6/lib/marisa/grimoire/io/mapper.cc:149: MARISA_IO_ERROR: origin_ == MAP_FAILED\00", align 1
@_ZTVN6marisa9ExceptionE = linkonce_odr unnamed_addr constant { [5 x ptr] } { [5 x ptr] [ptr null, ptr @_ZTIN6marisa9ExceptionE, ptr @_ZNSt9exceptionD2Ev, ptr @_ZN6marisa9ExceptionD0Ev, ptr @_ZNK6marisa9Exception4whatEv] }, comdat, align 8
@_ZTVSt9exception = available_externally unnamed_addr constant { [5 x ptr] } { [5 x ptr] [ptr null, ptr @_ZTISt9exception, ptr @_ZNSt9exceptionD1Ev, ptr @_ZNSt9exceptionD0Ev, ptr @_ZNKSt9exception4whatEv] }, align 8

; Function Attrs: mustprogress nounwind uwtable
define linkonce_odr void @_ZNSt9exceptionC2Ev(ptr noundef nonnull align 8 dereferenceable(8) %0) unnamed_addr #0 comdat align 2 {
  %2 = alloca ptr, align 8
  store ptr %0, ptr %2, align 8, !tbaa !42
  %3 = load ptr, ptr %2, align 8
  store ptr getelementptr inbounds inrange(-16, 24) ({ [5 x ptr] }, ptr @_ZTVSt9exception, i32 0, i32 0, i32 2), ptr %3, align 8, !tbaa !23
  ret void
}

; Function Attrs: mustprogress nounwind uwtable
define linkonce_odr void @_ZN6marisa9ExceptionC2EPKci18marisa_error_code_S2_(ptr noundef nonnull align 8 dereferenceable(32) %0, ptr noundef %1, i32 noundef %2, i32 noundef %3, ptr noundef %4) unnamed_addr #0 comdat align 2 {
  %6 = alloca ptr, align 8
  %7 = alloca ptr, align 8
  %8 = alloca i32, align 4
  %9 = alloca i32, align 4
  %10 = alloca ptr, align 8
  store ptr %0, ptr %6, align 8, !tbaa !18
  store ptr %1, ptr %7, align 8, !tbaa !16
  store i32 %2, ptr %8, align 4, !tbaa !20
  store i32 %3, ptr %9, align 4, !tbaa !21
  store ptr %4, ptr %10, align 8, !tbaa !16
  %11 = load ptr, ptr %6, align 8
  call void @_ZNSt9exceptionC2Ev(ptr noundef nonnull align 8 dereferenceable(8) %11) #8
  store ptr getelementptr inbounds inrange(-16, 24) ({ [5 x ptr] }, ptr @_ZTVN6marisa9ExceptionE, i32 0, i32 0, i32 2), ptr %11, align 8, !tbaa !23
  %12 = getelementptr inbounds nuw %"class.marisa::Exception", ptr %11, i32 0, i32 1
  %13 = load ptr, ptr %7, align 8, !tbaa !16
  store ptr %13, ptr %12, align 8, !tbaa !25
  %14 = getelementptr inbounds nuw %"class.marisa::Exception", ptr %11, i32 0, i32 2
  %15 = load i32, ptr %8, align 4, !tbaa !20
  store i32 %15, ptr %14, align 8, !tbaa !28
  %16 = getelementptr inbounds nuw %"class.marisa::Exception", ptr %11, i32 0, i32 3
  %17 = load i32, ptr %9, align 4, !tbaa !21
  store i32 %17, ptr %16, align 4, !tbaa !29
  %18 = getelementptr inbounds nuw %"class.marisa::Exception", ptr %11, i32 0, i32 4
  %19 = load ptr, ptr %10, align 8, !tbaa !16
  store ptr %19, ptr %18, align 8, !tbaa !30
  ret void
}

; Function Attrs: mustprogress uwtable
define void @_ZN6marisa8grimoire2io6Mapper5open_EPKc(ptr noundef nonnull align 8 dereferenceable(36) %0, ptr noundef %1) #4 align 2 personality ptr @__gxx_personality_v0 {
  %3 = alloca ptr, align 8
  %4 = alloca ptr, align 8
  %5 = alloca %struct.stat, align 8
  %6 = alloca ptr, align 8
  %7 = alloca i1, align 1
  %8 = alloca ptr, align 8
  %9 = alloca i32, align 4
  %10 = alloca ptr, align 8
  %11 = alloca i1, align 1
  %12 = alloca ptr, align 8
  %13 = alloca i1, align 1
  %14 = alloca ptr, align 8
  %15 = alloca i1, align 1
  store ptr %0, ptr %3, align 8, !tbaa !3
  store ptr %1, ptr %4, align 8, !tbaa !16
  %16 = load ptr, ptr %3, align 8
  call void @llvm.lifetime.start.p0(i64 144, ptr %5) #8
  %17 = load ptr, ptr %4, align 8, !tbaa !16
  %18 = call i32 @stat(ptr noundef %17, ptr noundef %5) #8
  %19 = icmp ne i32 %18, 0
  store i1 false, ptr %7, align 1
  br i1 %19, label %20, label %24

20:                                               ; preds = %2
  %21 = call ptr @__cxa_allocate_exception(i64 32) #8
  store ptr %21, ptr %6, align 8
  store i1 true, ptr %7, align 1
  invoke void @_ZN6marisa9ExceptionC2EPKci18marisa_error_code_S2_(ptr noundef nonnull align 8 dereferenceable(32) %21, ptr noundef @.str, i32 noundef 141, i32 noundef 9, ptr noundef @.str.7)
          to label %22 unwind label %67

22:                                               ; preds = %20
  call void @__cxa_throw(ptr %21, ptr @_ZTIN6marisa9ExceptionE, ptr @_ZNSt9exceptionD2Ev) #10
  unreachable

23:                                               ; No predecessors!
  br label %24

24:                                               ; preds = %23, %2
  %25 = getelementptr inbounds nuw %struct.stat, ptr %5, i32 0, i32 8
  %26 = load i64, ptr %25, align 8, !tbaa !31
  %27 = icmp ugt i64 %26, -1
  store i1 false, ptr %11, align 1
  br i1 %27, label %28, label %32

28:                                               ; preds = %24
  %29 = call ptr @__cxa_allocate_exception(i64 32) #8
  store ptr %29, ptr %10, align 8
  store i1 true, ptr %11, align 1
  invoke void @_ZN6marisa9ExceptionC2EPKci18marisa_error_code_S2_(ptr noundef nonnull align 8 dereferenceable(32) %29, ptr noundef @.str, i32 noundef 142, i32 noundef 7, ptr noundef @.str.8)
          to label %30 unwind label %75

30:                                               ; preds = %28
  call void @__cxa_throw(ptr %29, ptr @_ZTIN6marisa9ExceptionE, ptr @_ZNSt9exceptionD2Ev) #10
  unreachable

31:                                               ; No predecessors!
  br label %32

32:                                               ; preds = %31, %24
  %33 = getelementptr inbounds nuw %struct.stat, ptr %5, i32 0, i32 8
  %34 = load i64, ptr %33, align 8, !tbaa !31
  %35 = getelementptr inbounds nuw %"class.marisa::grimoire::io::Mapper", ptr %16, i32 0, i32 3
  store i64 %34, ptr %35, align 8, !tbaa !14
  %36 = load ptr, ptr %4, align 8, !tbaa !16
  %37 = call i32 (ptr, i32, ...) @open(ptr noundef %36, i32 noundef 0)
  %38 = getelementptr inbounds nuw %"class.marisa::grimoire::io::Mapper", ptr %16, i32 0, i32 4
  store i32 %37, ptr %38, align 8, !tbaa !15
  %39 = getelementptr inbounds nuw %"class.marisa::grimoire::io::Mapper", ptr %16, i32 0, i32 4
  %40 = load i32, ptr %39, align 8, !tbaa !15
  %41 = icmp eq i32 %40, -1
  store i1 false, ptr %13, align 1
  br i1 %41, label %42, label %46

42:                                               ; preds = %32
  %43 = call ptr @__cxa_allocate_exception(i64 32) #8
  store ptr %43, ptr %12, align 8
  store i1 true, ptr %13, align 1
  invoke void @_ZN6marisa9ExceptionC2EPKci18marisa_error_code_S2_(ptr noundef nonnull align 8 dereferenceable(32) %43, ptr noundef @.str, i32 noundef 146, i32 noundef 9, ptr noundef @.str.9)
          to label %44 unwind label %83

44:                                               ; preds = %42
  call void @__cxa_throw(ptr %43, ptr @_ZTIN6marisa9ExceptionE, ptr @_ZNSt9exceptionD2Ev) #10
  unreachable

45:                                               ; No predecessors!
  br label %46

46:                                               ; preds = %45, %32
  %47 = getelementptr inbounds nuw %"class.marisa::grimoire::io::Mapper", ptr %16, i32 0, i32 3
  %48 = load i64, ptr %47, align 8, !tbaa !14
  %49 = getelementptr inbounds nuw %"class.marisa::grimoire::io::Mapper", ptr %16, i32 0, i32 4
  %50 = load i32, ptr %49, align 8, !tbaa !15
  %51 = call ptr @mmap(ptr noundef null, i64 noundef %48, i32 noundef 1, i32 noundef 1, i32 noundef %50, i64 noundef 0) #8
  %52 = getelementptr inbounds nuw %"class.marisa::grimoire::io::Mapper", ptr %16, i32 0, i32 1
  store ptr %51, ptr %52, align 8, !tbaa !12
  %53 = getelementptr inbounds nuw %"class.marisa::grimoire::io::Mapper", ptr %16, i32 0, i32 1
  %54 = load ptr, ptr %53, align 8, !tbaa !12
  %55 = icmp eq ptr %54, inttoptr (i64 -1 to ptr)
  store i1 false, ptr %15, align 1
  br i1 %55, label %56, label %60

56:                                               ; preds = %46
  %57 = call ptr @__cxa_allocate_exception(i64 32) #8
  store ptr %57, ptr %14, align 8
  store i1 true, ptr %15, align 1
  invoke void @_ZN6marisa9ExceptionC2EPKci18marisa_error_code_S2_(ptr noundef nonnull align 8 dereferenceable(32) %57, ptr noundef @.str, i32 noundef 149, i32 noundef 9, ptr noundef @.str.10)
          to label %58 unwind label %91

58:                                               ; preds = %56
  call void @__cxa_throw(ptr %57, ptr @_ZTIN6marisa9ExceptionE, ptr @_ZNSt9exceptionD2Ev) #10
  unreachable

59:                                               ; No predecessors!
  br label %60

60:                                               ; preds = %59, %46
  %61 = getelementptr inbounds nuw %"class.marisa::grimoire::io::Mapper", ptr %16, i32 0, i32 1
  %62 = load ptr, ptr %61, align 8, !tbaa !12
  %63 = getelementptr inbounds nuw %"class.marisa::grimoire::io::Mapper", ptr %16, i32 0, i32 0
  store ptr %62, ptr %63, align 8, !tbaa !8
  %64 = getelementptr inbounds nuw %"class.marisa::grimoire::io::Mapper", ptr %16, i32 0, i32 3
  %65 = load i64, ptr %64, align 8, !tbaa !14
  %66 = getelementptr inbounds nuw %"class.marisa::grimoire::io::Mapper", ptr %16, i32 0, i32 2
  store i64 %65, ptr %66, align 8, !tbaa !13
  call void @llvm.lifetime.end.p0(i64 144, ptr %5) #8
  ret void

67:                                               ; preds = %20
  %68 = landingpad { ptr, i32 }
          cleanup
  %69 = extractvalue { ptr, i32 } %68, 0
  store ptr %69, ptr %8, align 8
  %70 = extractvalue { ptr, i32 } %68, 1
  store i32 %70, ptr %9, align 4
  %71 = load i1, ptr %7, align 1
  br i1 %71, label %72, label %74

72:                                               ; preds = %67
  %73 = load ptr, ptr %6, align 8
  call void @__cxa_free_exception(ptr %73) #8
  br label %74

74:                                               ; preds = %72, %67
  br label %99

75:                                               ; preds = %28
  %76 = landingpad { ptr, i32 }
          cleanup
  %77 = extractvalue { ptr, i32 } %76, 0
  store ptr %77, ptr %8, align 8
  %78 = extractvalue { ptr, i32 } %76, 1
  store i32 %78, ptr %9, align 4
  %79 = load i1, ptr %11, align 1
  br i1 %79, label %80, label %82

80:                                               ; preds = %75
  %81 = load ptr, ptr %10, align 8
  call void @__cxa_free_exception(ptr %81) #8
  br label %82

82:                                               ; preds = %80, %75
  br label %99

83:                                               ; preds = %42
  %84 = landingpad { ptr, i32 }
          cleanup
  %85 = extractvalue { ptr, i32 } %84, 0
  store ptr %85, ptr %8, align 8
  %86 = extractvalue { ptr, i32 } %84, 1
  store i32 %86, ptr %9, align 4
  %87 = load i1, ptr %13, align 1
  br i1 %87, label %88, label %90

88:                                               ; preds = %83
  %89 = load ptr, ptr %12, align 8
  call void @__cxa_free_exception(ptr %89) #8
  br label %90

90:                                               ; preds = %88, %83
  br label %99

91:                                               ; preds = %56
  %92 = landingpad { ptr, i32 }
          cleanup
  %93 = extractvalue { ptr, i32 } %92, 0
  store ptr %93, ptr %8, align 8
  %94 = extractvalue { ptr, i32 } %92, 1
  store i32 %94, ptr %9, align 4
  %95 = load i1, ptr %15, align 1
  br i1 %95, label %96, label %98

96:                                               ; preds = %91
  %97 = load ptr, ptr %14, align 8
  call void @__cxa_free_exception(ptr %97) #8
  br label %98

98:                                               ; preds = %96, %91
  br label %99

99:                                               ; preds = %98, %90, %82, %74
  call void @llvm.lifetime.end.p0(i64 144, ptr %5) #8
  br label %100

100:                                              ; preds = %99
  %101 = load ptr, ptr %8, align 8
  %102 = load i32, ptr %9, align 4
  %103 = insertvalue { ptr, i32 } poison, ptr %101, 0
  %104 = insertvalue { ptr, i32 } %103, i32 %102, 1
  resume { ptr, i32 } %104
}