; Function Attrs: mustprogress uwtable
define void @_ZN6marisa8grimoire2io6Mapper5open_EPKc(ptr noundef nonnull align 8 captures(none) dereferenceable(36) %0, ptr noundef readonly captures(none) %1) local_unnamed_addr #6 align 2 personality ptr @__gxx_personality_v0 {
  %3 = alloca %struct.stat, align 8
  call void @llvm.lifetime.start.p0(i64 144, ptr nonnull %3) #15
  %4 = call i32 @stat(ptr noundef %1, ptr noundef nonnull %3) #15
  %.not = icmp eq i32 %4, 0
  br i1 %.not, label %11, label %5

5:                                                ; preds = %2
  %6 = tail call ptr @__cxa_allocate_exception(i64 32) #15
  store ptr getelementptr inbounds nuw inrange(-16, 24) (i8, ptr @_ZTVN6marisa9ExceptionE, i64 16), ptr %6, align 8, !tbaa !13
  %7 = getelementptr inbounds nuw i8, ptr %6, i64 8
  store ptr @.str, ptr %7, align 8, !tbaa !15
  %8 = getelementptr inbounds nuw i8, ptr %6, i64 16
  store i32 141, ptr %8, align 8, !tbaa !20
  %9 = getelementptr inbounds nuw i8, ptr %6, i64 20
  store i32 9, ptr %9, align 4, !tbaa !21
  %10 = getelementptr inbounds nuw i8, ptr %6, i64 24
  store ptr @.str.7, ptr %10, align 8, !tbaa !22
  tail call void @__cxa_throw(ptr nonnull %6, ptr nonnull @_ZTIN6marisa9ExceptionE, ptr nonnull @_ZNSt9exceptionD2Ev) #17
  unreachable

11:                                               ; preds = %2
  %12 = getelementptr inbounds nuw i8, ptr %3, i64 48
  %13 = load i64, ptr %12, align 8, !tbaa !26
  %14 = getelementptr inbounds nuw i8, ptr %0, i64 24
  store i64 %13, ptr %14, align 8, !tbaa !12
  %15 = tail call i32 (ptr, i32, ...) @open(ptr noundef %1, i32 noundef 0)
  %16 = getelementptr inbounds nuw i8, ptr %0, i64 32
  store i32 %15, ptr %16, align 8, !tbaa !11
  %17 = icmp eq i32 %15, -1
  br i1 %17, label %18, label %24

18:                                               ; preds = %11
  %19 = tail call ptr @__cxa_allocate_exception(i64 32) #15
  store ptr getelementptr inbounds nuw inrange(-16, 24) (i8, ptr @_ZTVN6marisa9ExceptionE, i64 16), ptr %19, align 8, !tbaa !13
  %20 = getelementptr inbounds nuw i8, ptr %19, i64 8
  store ptr @.str, ptr %20, align 8, !tbaa !15
  %21 = getelementptr inbounds nuw i8, ptr %19, i64 16
  store i32 146, ptr %21, align 8, !tbaa !20
  %22 = getelementptr inbounds nuw i8, ptr %19, i64 20
  store i32 9, ptr %22, align 4, !tbaa !21
  %23 = getelementptr inbounds nuw i8, ptr %19, i64 24
  store ptr @.str.9, ptr %23, align 8, !tbaa !22
  tail call void @__cxa_throw(ptr nonnull %19, ptr nonnull @_ZTIN6marisa9ExceptionE, ptr nonnull @_ZNSt9exceptionD2Ev) #17
  unreachable

24:                                               ; preds = %11
  %25 = load i64, ptr %14, align 8, !tbaa !12
  %26 = tail call ptr @mmap(ptr noundef null, i64 noundef %25, i32 noundef 1, i32 noundef 1, i32 noundef %15, i64 noundef 0) #15
  %27 = getelementptr inbounds nuw i8, ptr %0, i64 8
  store ptr %26, ptr %27, align 8, !tbaa !10
  %28 = icmp eq ptr %26, inttoptr (i64 -1 to ptr)
  br i1 %28, label %29, label %35

29:                                               ; preds = %24
  %30 = tail call ptr @__cxa_allocate_exception(i64 32) #15
  store ptr getelementptr inbounds nuw inrange(-16, 24) (i8, ptr @_ZTVN6marisa9ExceptionE, i64 16), ptr %30, align 8, !tbaa !13
  %31 = getelementptr inbounds nuw i8, ptr %30, i64 8
  store ptr @.str, ptr %31, align 8, !tbaa !15
  %32 = getelementptr inbounds nuw i8, ptr %30, i64 16
  store i32 149, ptr %32, align 8, !tbaa !20
  %33 = getelementptr inbounds nuw i8, ptr %30, i64 20
  store i32 9, ptr %33, align 4, !tbaa !21
  %34 = getelementptr inbounds nuw i8, ptr %30, i64 24
  store ptr @.str.10, ptr %34, align 8, !tbaa !22
  tail call void @__cxa_throw(ptr nonnull %30, ptr nonnull @_ZTIN6marisa9ExceptionE, ptr nonnull @_ZNSt9exceptionD2Ev) #17
  unreachable

35:                                               ; preds = %24
  store ptr %26, ptr %0, align 8, !tbaa !3
  %36 = load i64, ptr %14, align 8, !tbaa !12
  %37 = getelementptr inbounds nuw i8, ptr %0, i64 16
  store i64 %36, ptr %37, align 8, !tbaa !29
  call void @llvm.lifetime.end.p0(i64 144, ptr nonnull %3) #15
  ret void
}